; Function Attrs: mustprogress uwtable
define noundef i32 @_ZNK6icu_7713DecimalFormat15getRoundingModeEv(ptr noundef nonnull readonly align 8 captures(none) dereferenceable(72) %0) unnamed_addr #1 align 2 {
  %2 = getelementptr inbounds nuw i8, ptr %0, i64 64
  %3 = load ptr, ptr %2, align 8, !tbaa !25
  %4 = icmp eq ptr %3, null
  br i1 %4, label %5, label %8

5:                                                ; preds = %1
  %6 = tail call noundef nonnull align 8 dereferenceable(757) ptr @_ZN6icu_776number4impl23DecimalFormatProperties10getDefaultEv()
  %7 = getelementptr inbounds nuw i8, ptr %6, i64 748
  br label %10

8:                                                ; preds = %1
  %9 = getelementptr inbounds nuw i8, ptr %3, i64 4516
  br label %10

10:                                               ; preds = %8, %5
  %.0.in = phi ptr [ %7, %5 ], [ %9, %8 ]
  %.0 = load i32, ptr %.0.in, align 4, !tbaa !148
  ret i32 %.0
}